; ModuleID = '45/2624.c'
source_filename = "45/2624.c"
target datalayout = "e-m:e-p270:32:32-p271:32:32-p272:64:64-i64:64-f80:128-n8:16:32:64-S128"
target triple = "x86_64-pc-linux-gnu"

@.str = private unnamed_addr constant [6 x i8] c"%s %s\00", align 1
@.str.1 = private unnamed_addr constant [3 x i8] c"%d\00", align 1

; Function Attrs: noinline nounwind uwtable
define dso_local i32 @main() #0 {
  %1 = alloca i32, align 4
  %2 = alloca i32, align 4
  %3 = alloca i32, align 4
  %4 = alloca i32, align 4
  %5 = alloca i32, align 4
  %6 = alloca i32, align 4
  %7 = alloca i32, align 4
  %8 = alloca i32, align 4
  %9 = alloca [50 x i8], align 16
  %10 = alloca [50 x i8], align 16
  store i32 0, i32* %1, align 4
  store i32 0, i32* %8, align 4
  %11 = getelementptr inbounds [50 x i8], [50 x i8]* %9, i64 0, i64 0
  %12 = getelementptr inbounds [50 x i8], [50 x i8]* %10, i64 0, i64 0
  %13 = call i32 (i8*, ...) @__isoc99_scanf(i8* getelementptr inbounds ([6 x i8], [6 x i8]* @.str, i64 0, i64 0), i8* %11, i8* %12)
  %14 = getelementptr inbounds [50 x i8], [50 x i8]* %9, i64 0, i64 0
  %15 = call i64 @strlen(i8* %14) #3
  %16 = trunc i64 %15 to i32
  store i32 %16, i32* %2, align 4
  %17 = getelementptr inbounds [50 x i8], [50 x i8]* %10, i64 0, i64 0
  %18 = call i64 @strlen(i8* %17) #3
  %19 = trunc i64 %18 to i32
  store i32 %19, i32* %3, align 4
  store i32 0, i32* %6, align 4
  br label %20

20:                                               ; preds = %39, %0
  %21 = load i32, i32* %6, align 4
  %22 = load i32, i32* %3, align 4
  %23 = icmp slt i32 %21, %22
  br i1 %23, label %24, label %42

24:                                               ; preds = %20
  %25 = load i32, i32* %6, align 4
  %26 = sext i32 %25 to i64
  %27 = getelementptr inbounds [50 x i8], [50 x i8]* %10, i64 0, i64 %26
  %28 = load i8, i8* %27, align 1
  %29 = sext i8 %28 to i32
  %30 = load i32, i32* %8, align 4
  %31 = sext i32 %30 to i64
  %32 = getelementptr inbounds [50 x i8], [50 x i8]* %9, i64 0, i64 %31
  %33 = load i8, i8* %32, align 1
  %34 = sext i8 %33 to i32
  %35 = icmp eq i32 %29, %34
  br i1 %35, label %36, label %38

36:                                               ; preds = %24
  %37 = load i32, i32* %6, align 4
  store i32 %37, i32* %4, align 4
  br label %42

38:                                               ; preds = %24
  br label %39

39:                                               ; preds = %38
  %40 = load i32, i32* %6, align 4
  %41 = add nsw i32 %40, 1
  store i32 %41, i32* %6, align 4
  br label %20

42:                                               ; preds = %36, %20
  %43 = load i32, i32* %4, align 4
  %44 = call i32 (i8*, ...) @printf(i8* getelementptr inbounds ([3 x i8], [3 x i8]* @.str.1, i64 0, i64 0), i32 %43)
  ret i32 0
}

declare dso_local i32 @__isoc99_scanf(i8*, ...) #1

; Function Attrs: nounwind readonly
declare dso_local i64 @strlen(i8*) #2

declare dso_local i32 @printf(i8*, ...) #1


!llvm.module.flags = !{!0}
!llvm.ident = !{!1}

!0 = !{i32 1, !"wchar_size", i32 4}
!1 = !{!"clang version 10.0.0-4ubuntu1 "}
